target datalayout = "e-m:e-p270:32:32-p271:32:32-p272:64:64-i64:64-i128:128-f80:128-n8:16:32:64-S128"
target triple = "x86_64-pc-linux-gnu"

%"union.Assimp::PLY::PropertyInstance::ValueUnion" = type { double }

; Function Attrs: mustprogress nounwind uwtable
define hidden i64 @_ZN6Assimp3PLY16PropertyInstance12DefaultValueENS0_9EDataTypeE(i32 noundef %0) #2 align 2 {
  %2 = alloca %"union.Assimp::PLY::PropertyInstance::ValueUnion", align 8
  %3 = alloca i32, align 4
  store i32 %0, ptr %3, align 4
  %4 = load i32, ptr %3, align 4
  switch i32 %4, label %7 [
    i32 6, label %5
    i32 7, label %6
  ]

5:                                                ; preds = %1
  store float 0.000000e+00, ptr %2, align 8
  br label %9

6:                                                ; preds = %1
  store double 0.000000e+00, ptr %2, align 8
  br label %9

7:                                                ; preds = %1
  br label %8

8:                                                ; preds = %7
  store i32 0, ptr %2, align 8
  br label %9

9:                                                ; preds = %8, %6, %5
  %10 = getelementptr inbounds nuw %"union.Assimp::PLY::PropertyInstance::ValueUnion", ptr %2, i32 0, i32 0
  %11 = load i64, ptr %10, align 8
  ret i64 %11
}