; Function Attrs: mustprogress nofree norecurse nosync nounwind willreturn memory(none) uwtable
define hidden i64 @_ZN6Assimp3PLY16PropertyInstance12DefaultValueENS0_9EDataTypeE(i32 noundef %0) local_unnamed_addr #11 align 2 {
  %.sroa.0 = alloca double, align 8
  switch i32 %0, label %4 [
    i32 6, label %2
    i32 7, label %3
  ]

2:                                                ; preds = %1
  store float 0.000000e+00, ptr %.sroa.0, align 8
  br label %5

3:                                                ; preds = %1
  store double 0.000000e+00, ptr %.sroa.0, align 8
  br label %5

4:                                                ; preds = %1
  store i32 0, ptr %.sroa.0, align 8
  br label %5

5:                                                ; preds = %4, %3, %2
  %.sroa.0.0..sroa.0.0..sroa.0.0..sroa.0.0..sroa.0.0.1234 = load i64, ptr %.sroa.0, align 8
  ret i64 %.sroa.0.0..sroa.0.0..sroa.0.0..sroa.0.0..sroa.0.0.1234
}